target datalayout = "e-m:e-p270:32:32-p271:32:32-p272:64:64-i64:64-i128:128-f80:128-n8:16:32:64-S128"
target triple = "x86_64-pc-linux-gnu"

%struct.lv_area_t = type { i32, i32, i32, i32 }
%struct._lv_layer_t = type { ptr, %struct.lv_area_t, i32, %struct.lv_area_t, %struct.lv_area_t, ptr, ptr, ptr, i8, ptr }

; Function Attrs: nounwind uwtable
define void @lv_canvas_finish_layer(ptr noundef %0, ptr noundef %1) #0 {
  %3 = alloca ptr, align 8
  %4 = alloca ptr, align 8
  %5 = alloca i8, align 1
  store ptr %0, ptr %3, align 8, !tbaa !3
  store ptr %1, ptr %4, align 8, !tbaa !3
  %6 = load ptr, ptr %4, align 8, !tbaa !3
  %7 = getelementptr inbounds nuw %struct._lv_layer_t, ptr %6, i32 0, i32 5
  %8 = load ptr, ptr %7, align 8, !tbaa !61
  %9 = icmp eq ptr %8, null
  br i1 %9, label %10, label %11

10:                                               ; preds = %2
  br label %29

11:                                               ; preds = %2
  call void @llvm.lifetime.start.p0(i64 1, ptr %5) #6
  br label %12

12:                                               ; preds = %26, %11
  %13 = load ptr, ptr %4, align 8, !tbaa !3
  %14 = getelementptr inbounds nuw %struct._lv_layer_t, ptr %13, i32 0, i32 5
  %15 = load ptr, ptr %14, align 8, !tbaa !61
  %16 = icmp ne ptr %15, null
  br i1 %16, label %17, label %27

17:                                               ; preds = %12
  call void @lv_draw_dispatch_wait_for_request()
  %18 = load ptr, ptr %3, align 8, !tbaa !3
  %19 = call ptr @lv_obj_get_display(ptr noundef %18)
  %20 = load ptr, ptr %4, align 8, !tbaa !3
  %21 = call zeroext i1 @lv_draw_dispatch_layer(ptr noundef %19, ptr noundef %20)
  %22 = zext i1 %21 to i8
  store i8 %22, ptr %5, align 1, !tbaa !62
  %23 = load i8, ptr %5, align 1, !tbaa !62, !range !63, !noundef !64
  %24 = trunc i8 %23 to i1
  br i1 %24, label %26, label %25

25:                                               ; preds = %17
  call void @lv_draw_wait_for_finish()
  call void @lv_draw_dispatch_request()
  br label %26

26:                                               ; preds = %25, %17
  br label %12, !llvm.loop !65

27:                                               ; preds = %12
  %28 = load ptr, ptr %3, align 8, !tbaa !3
  call void @lv_obj_invalidate(ptr noundef %28)
  call void @llvm.lifetime.end.p0(i64 1, ptr %5) #6
  br label %29

29:                                               ; preds = %27, %10
  ret void
}