; Function Attrs: nounwind uwtable
define void @lv_canvas_finish_layer(ptr noundef %0, ptr noundef %1) local_unnamed_addr #1 {
  %3 = getelementptr inbounds nuw i8, ptr %1, i64 64
  %4 = load ptr, ptr %3, align 8, !tbaa !46
  %5 = icmp eq ptr %4, null
  br i1 %5, label %11, label %.preheader

.preheader:                                       ; preds = %2, %9
  tail call void @lv_draw_dispatch_wait_for_request() #5
  %6 = tail call ptr @lv_obj_get_display(ptr noundef %0) #5
  %7 = tail call zeroext i1 @lv_draw_dispatch_layer(ptr noundef %6, ptr noundef nonnull %1) #5
  br i1 %7, label %9, label %8

8:                                                ; preds = %.preheader
  tail call void @lv_draw_wait_for_finish() #5
  tail call void @lv_draw_dispatch_request() #5
  br label %9

9:                                                ; preds = %8, %.preheader
  %.pr = load ptr, ptr %3, align 8, !tbaa !46
  %.not = icmp eq ptr %.pr, null
  br i1 %.not, label %10, label %.preheader, !llvm.loop !47

10:                                               ; preds = %9
  tail call void @lv_obj_invalidate(ptr noundef %0) #5
  br label %11

11:                                               ; preds = %2, %10
  ret void
}